Certificate:
    Data:
        Version: 3 (0x2)
        Serial Number: 1 (0x1)
    Signature Algorithm: sha256WithRSAEncryption
        Issuer: C=CN, ST=Zhejiang, L=Shaoxing, O=Chunhui Controls Inc./emailAddress=contact@chunhuizk.com, CN=Chunhui Certificate Authority
        Validity
            Not Before: Apr  2 11:59:29 2023 GMT
            Not After : Sep  5 11:59:29 2039 GMT
        Subject: C=CN, ST=Zhejiang, O=Chunhui Controls Inc., CN=Chunhui Certificate Authority/emailAddress=contact@chunhuizk.com
        Subject Public Key Info:
            Public Key Algorithm: rsaEncryption
                RSA Public-Key: (2048 bit)
                Modulus:
                    00:b1:e2:f1:76:fb:db:77:32:3c:32:a4:cf:8e:ef:
                    29:de:d3:d5:eb:b7:be:de:b2:58:3a:41:ad:e7:f4:
                    88:c3:47:e2:f7:3e:df:46:86:23:d0:84:90:dc:bf:
                    6b:0b:43:7b:be:f0:29:dd:74:18:22:5f:dd:3e:00:
                    a9:2f:bb:a5:f5:5b:65:6a:35:58:0a:a2:ea:98:1c:
                    1e:a7:c1:9d:fd:bd:03:15:4c:75:dc:97:b5:64:4f:
                    05:46:59:c6:e4:3a:db:92:71:4a:a5:fe:bb:0b:d3:
                    c3:ad:92:00:cd:30:be:aa:11:fe:22:c2:0c:e5:c2:
                    c1:62:6c:7b:45:cc:99:03:85:99:e3:c2:9c:39:4d:
                    8d:73:a5:7f:85:35:8f:41:76:38:f3:30:2e:e8:75:
                    85:25:1f:02:25:01:d2:0c:f8:ef:f0:23:b5:5a:c4:
                    82:52:a0:cc:88:af:84:48:94:f9:d0:f1:50:12:52:
                    92:02:3f:4d:5d:b1:09:47:d0:6a:ab:2e:e9:68:19:
                    ba:96:71:7d:06:fe:1a:e2:5c:28:43:f6:32:58:1f:
                    f9:a2:dd:ca:87:e8:f4:8c:0b:9a:ae:42:e2:63:bd:
                    82:e6:b4:9d:b7:d5:dd:81:2b:3c:70:93:9d:d9:0d:
                    50:84:55:96:d2:e1:e1:d6:d6:bb:43:09:cd:f8:7c:
                    3e:21
                Exponent: 65537 (0x10001)
        X509v3 extensions:
            X509v3 Extended Key Usage: 
                TLS Web Server Authentication
            X509v3 CRL Distribution Points: 

                Full Name:
                  URI:https://www.chunhuizk.com/ca.crl

            X509v3 Certificate Policies: 
                Policy: 1.3.6.1.4.1.40808.1.3.2

    Signature Algorithm: sha256WithRSAEncryption
         a3:ec:b6:01:3f:4f:fc:35:ca:bb:19:9b:98:f3:fb:6c:47:7b:
         06:87:86:e0:19:7e:b7:34:a8:87:19:9e:a8:e4:6c:ec:a4:15:
         1a:93:e1:16:8d:cc:93:ba:c3:34:b4:d9:b6:28:62:ee:56:6a:
         e7:2d:4d:41:2f:af:9d:37:b9:bc:07:84:d2:e2:1f:3a:86:b9:
         98:80:0e:c7:45:90:94:71:c2:ff:65:d7:5b:6c:18:f3:f7:3d:
         83:51:c8:28:4d:95:19:8d:96:78:db:99:49:59:87:8d:e4:95:
         ab:9e:a3:24:ac:a2:7b:9a:a1:f0:8d:8a:36:98:1b:12:c7:4d:
         6c:e6:32:9f:56:d8:24:6a:89:b2:5c:16:38:a7:c0:32:5b:20:
         4c:2e:d9:6e:44:bd:a6:4b:bf:ae:bb:35:be:ba:97:8e:97:5e:
         bb:dd:b3:94:01:b3:e9:66:b1:68:0a:a0:e9:db:8d:f1:b3:e3:
         d5:5c:3d:d5:3d:52:20:46:3e:97:49:03:6a:c0:ea:9f:eb:fa:
         ba:0f:83:83:f9:24:b2:19:dd:27:85:18:8d:71:4c:38:7e:cf:
         e0:bc:d8:be:62:ad:4d:e1:0c:b9:f3:a9:29:f0:2a:50:4d:31:
         a8:69:f1:32:2a:9b:b6:f8:55:b6:e0:83:01:1c:8b:e2:d9:62:
         99:48:fd:2e
-----BEGIN CERTIFICATE-----
MIIEEDCCAvigAwIBAgIBATANBgkqhkiG9w0BAQsFADCBoTELMAkGA1UEBhMCQ04x
ETAPBgNVBAgMCFpoZWppYW5nMREwDwYDVQQHDAhTaGFveGluZzEeMBwGA1UECgwV
Q2h1bmh1aSBDb250cm9scyBJbmMuMSQwIgYJKoZIhvcNAQkBFhVjb250YWN0QGNo
dW5odWl6ay5jb20xJjAkBgNVBAMMHUNodW5odWkgQ2VydGlmaWNhdGUgQXV0aG9y
aXR5MB4XDTIzMDQwMjExNTkyOVoXDTM5MDkwNTExNTkyOVowgY4xCzAJBgNVBAYT
AkNOMREwDwYDVQQIDAhaaGVqaWFuZzEeMBwGA1UECgwVQ2h1bmh1aSBDb250cm9s
cyBJbmMuMSYwJAYDVQQDDB1DaHVuaHVpIENlcnRpZmljYXRlIEF1dGhvcml0eTEk
MCIGCSqGSIb3DQEJARYVY29udGFjdEBjaHVuaHVpemsuY29tMIIBIjANBgkqhkiG
9w0BAQEFAAOCAQ8AMIIBCgKCAQEAseLxdvvbdzI8MqTPju8p3tPV67e+3rJYOkGt
5/SIw0fi9z7fRoYj0ISQ3L9rC0N7vvAp3XQYIl/dPgCpL7ul9VtlajVYCqLqmBwe
p8Gd/b0DFUx13Je1ZE8FRlnG5DrbknFKpf67C9PDrZIAzTC+qhH+IsIM5cLBYmx7
RcyZA4WZ48KcOU2Nc6V/hTWPQXY48zAu6HWFJR8CJQHSDPjv8CO1WsSCUqDMiK+E
SJT50PFQElKSAj9NXbEJR9Bqqy7paBm6lnF9Bv4a4lwoQ/YyWB/5ot3Kh+j0jAua
rkLiY72C5rSdt9XdgSs8cJOd2Q1QhFWW0uHh1ta7QwnN+Hw+IQIDAQABo2QwYjAT
BgNVHSUEDDAKBggrBgEFBQcDATAxBgNVHR8EKjAoMCagJKAihiBodHRwczovL3d3
dy5jaHVuaHVpemsuY29tL2NhLmNybDAYBgNVHSAEETAPMA0GCysGAQQBgr5oAQMC
MA0GCSqGSIb3DQEBCwUAA4IBAQCj7LYBP0/8Ncq7GZuY8/tsR3sGh4bgGX63NKiH
GZ6o5GzspBUak+EWjcyTusM0tNm2KGLuVmrnLU1BL6+dN7m8B4TS4h86hrmYgA7H
RZCUccL/ZddbbBjz9z2DUcgoTZUZjZZ425lJWYeN5JWrnqMkrKJ7mqHwjYo2mBsS
x01s5jKfVtgkaomyXBY4p8AyWyBMLtluRL2mS7+uuzW+upeOl1673bOUAbPpZrFo
CqDp243xs+PVXD3VPVIgRj6XSQNqwOqf6/q6D4OD+SSyGd0nhRiNcUw4fs/gvNi+
Yq1N4Qy586kp8CpQTTGoafEyKpu2+FW24IMBHIvi2WKZSP0u
-----END CERTIFICATE-----
